target datalayout = "e-m:e-p270:32:32-p271:32:32-p272:64:64-i64:64-i128:128-f80:128-n8:16:32:64-S128"
target triple = "x86_64-pc-linux-gnu"

%struct.SDL_GUID = type { [16 x i8] }
%struct.SDL_Joystick = type { i32, ptr, ptr, ptr, %struct.SDL_GUID, i16, i64, i8, i8, i32, ptr, i32, ptr, i32, ptr, i32, ptr, i32, ptr, i32, i32, ptr, i16, i16, i64, i64, i16, i16, i64, i64, i8, i8, i8, i64, i8, i32, i32, i32, i8, i32, ptr, i32, ptr, [3 x [3 x float]], i64, ptr, ptr, i32, i32, ptr }
%struct.joystick_hwdata = type { i32, i32, ptr, ptr, %struct.SDL_GUID, ptr, i8, i8, %struct.ff_effect, i32, ptr, ptr, [767 x i8], [63 x i8], [767 x i8], [63 x i8], i8, i8, i8, ptr, ptr, [63 x %struct.axis_correct], [3 x float], [3 x float], [3 x float], [3 x float], i64, i32, i8, i8, i8, i8, i8, [4 x i32], [4 x i8], [4 x %struct.hat_axis_correct], i8, i8 }
%struct.ff_effect = type { i16, i16, i16, %struct.ff_trigger, %struct.ff_replay, %union.anon }
%struct.ff_trigger = type { i16, i16 }
%struct.ff_replay = type { i16, i16 }
%union.anon = type { %struct.ff_periodic_effect }
%struct.ff_periodic_effect = type { i16, i16, i16, i16, i16, %struct.ff_envelope, i32, ptr }
%struct.ff_envelope = type { i16, i16, i16, i16 }
%struct.axis_correct = type { i8, [3 x i32], i32, i32, float }
%struct.hat_axis_correct = type { i8, [2 x i32], [2 x i32] }
%struct.input_event = type { %struct.timeval, i16, i16, i32 }
%struct.timeval = type { i64, i64 }
%struct.ff_rumble_effect = type { i16, i16 }

@.str.23 = private unnamed_addr constant [32 x i8] c"That operation is not supported\00", align 1
@.str.24 = private unnamed_addr constant [34 x i8] c"Couldn't update rumble effect: %s\00", align 1
@.str.25 = private unnamed_addr constant [33 x i8] c"Couldn't start rumble effect: %s\00", align 1

; Function Attrs: nounwind uwtable
define internal zeroext i1 @LINUX_JoystickRumble(ptr noundef %0, i16 noundef zeroext %1, i16 noundef zeroext %2) #0 {
  %4 = alloca i1, align 1
  %5 = alloca ptr, align 8
  %6 = alloca i16, align 2
  %7 = alloca i16, align 2
  %8 = alloca %struct.input_event, align 8
  %9 = alloca ptr, align 8
  %10 = alloca i16, align 2
  %11 = alloca ptr, align 8
  %12 = alloca i32, align 4
  store ptr %0, ptr %5, align 8
  store i16 %1, ptr %6, align 2
  store i16 %2, ptr %7, align 2
  call void @llvm.lifetime.start.p0(i64 24, ptr %8) #11
  call void @SDL_AssertJoysticksLocked()
  %13 = load ptr, ptr %5, align 8
  %14 = getelementptr inbounds nuw %struct.SDL_Joystick, ptr %13, i32 0, i32 46
  %15 = load ptr, ptr %14, align 8
  %16 = getelementptr inbounds nuw %struct.joystick_hwdata, ptr %15, i32 0, i32 6
  %17 = load i8, ptr %16, align 8, !range !5, !noundef !6
  %18 = trunc i8 %17 to i1
  br i1 %18, label %19, label %37

19:                                               ; preds = %3
  call void @llvm.lifetime.start.p0(i64 8, ptr %9) #11
  %20 = load ptr, ptr %5, align 8
  %21 = getelementptr inbounds nuw %struct.SDL_Joystick, ptr %20, i32 0, i32 46
  %22 = load ptr, ptr %21, align 8
  %23 = getelementptr inbounds nuw %struct.joystick_hwdata, ptr %22, i32 0, i32 8
  store ptr %23, ptr %9, align 8
  %24 = load ptr, ptr %9, align 8
  %25 = getelementptr inbounds nuw %struct.ff_effect, ptr %24, i32 0, i32 0
  store i16 80, ptr %25, align 8
  %26 = load ptr, ptr %9, align 8
  %27 = getelementptr inbounds nuw %struct.ff_effect, ptr %26, i32 0, i32 4
  %28 = getelementptr inbounds nuw %struct.ff_replay, ptr %27, i32 0, i32 0
  store i16 -1, ptr %28, align 2
  %29 = load i16, ptr %6, align 2
  %30 = load ptr, ptr %9, align 8
  %31 = getelementptr inbounds nuw %struct.ff_effect, ptr %30, i32 0, i32 5
  %32 = getelementptr inbounds nuw %struct.ff_rumble_effect, ptr %31, i32 0, i32 0
  store i16 %29, ptr %32, align 8
  %33 = load i16, ptr %7, align 2
  %34 = load ptr, ptr %9, align 8
  %35 = getelementptr inbounds nuw %struct.ff_effect, ptr %34, i32 0, i32 5
  %36 = getelementptr inbounds nuw %struct.ff_rumble_effect, ptr %35, i32 0, i32 1
  store i16 %33, ptr %36, align 2
  call void @llvm.lifetime.end.p0(i64 8, ptr %9) #11
  br label %73

37:                                               ; preds = %3
  %38 = load ptr, ptr %5, align 8
  %39 = getelementptr inbounds nuw %struct.SDL_Joystick, ptr %38, i32 0, i32 46
  %40 = load ptr, ptr %39, align 8
  %41 = getelementptr inbounds nuw %struct.joystick_hwdata, ptr %40, i32 0, i32 7
  %42 = load i8, ptr %41, align 1, !range !5, !noundef !6
  %43 = trunc i8 %42 to i1
  br i1 %43, label %44, label %70

44:                                               ; preds = %37
  call void @llvm.lifetime.start.p0(i64 2, ptr %10) #11
  %45 = load i16, ptr %6, align 2
  %46 = zext i16 %45 to i32
  %47 = sdiv i32 %46, 2
  %48 = load i16, ptr %7, align 2
  %49 = zext i16 %48 to i32
  %50 = sdiv i32 %49, 2
  %51 = add nsw i32 %47, %50
  %52 = sdiv i32 %51, 2
  %53 = trunc i32 %52 to i16
  store i16 %53, ptr %10, align 2
  call void @llvm.lifetime.start.p0(i64 8, ptr %11) #11
  %54 = load ptr, ptr %5, align 8
  %55 = getelementptr inbounds nuw %struct.SDL_Joystick, ptr %54, i32 0, i32 46
  %56 = load ptr, ptr %55, align 8
  %57 = getelementptr inbounds nuw %struct.joystick_hwdata, ptr %56, i32 0, i32 8
  store ptr %57, ptr %11, align 8
  %58 = load ptr, ptr %11, align 8
  %59 = getelementptr inbounds nuw %struct.ff_effect, ptr %58, i32 0, i32 0
  store i16 81, ptr %59, align 8
  %60 = load ptr, ptr %11, align 8
  %61 = getelementptr inbounds nuw %struct.ff_effect, ptr %60, i32 0, i32 4
  %62 = getelementptr inbounds nuw %struct.ff_replay, ptr %61, i32 0, i32 0
  store i16 -1, ptr %62, align 2
  %63 = load ptr, ptr %11, align 8
  %64 = getelementptr inbounds nuw %struct.ff_effect, ptr %63, i32 0, i32 5
  %65 = getelementptr inbounds nuw %struct.ff_periodic_effect, ptr %64, i32 0, i32 0
  store i16 90, ptr %65, align 8
  %66 = load i16, ptr %10, align 2
  %67 = load ptr, ptr %11, align 8
  %68 = getelementptr inbounds nuw %struct.ff_effect, ptr %67, i32 0, i32 5
  %69 = getelementptr inbounds nuw %struct.ff_periodic_effect, ptr %68, i32 0, i32 2
  store i16 %66, ptr %69, align 4
  call void @llvm.lifetime.end.p0(i64 8, ptr %11) #11
  call void @llvm.lifetime.end.p0(i64 2, ptr %10) #11
  br label %72

70:                                               ; preds = %37
  %71 = call zeroext i1 (ptr, ...) @SDL_SetError_REAL(ptr noundef @.str.23)
  store i1 %71, ptr %4, align 1
  store i32 1, ptr %12, align 4
  br label %131

72:                                               ; preds = %44
  br label %73

73:                                               ; preds = %72, %19
  %74 = load ptr, ptr %5, align 8
  %75 = getelementptr inbounds nuw %struct.SDL_Joystick, ptr %74, i32 0, i32 46
  %76 = load ptr, ptr %75, align 8
  %77 = getelementptr inbounds nuw %struct.joystick_hwdata, ptr %76, i32 0, i32 0
  %78 = load i32, ptr %77, align 8
  %79 = load ptr, ptr %5, align 8
  %80 = getelementptr inbounds nuw %struct.SDL_Joystick, ptr %79, i32 0, i32 46
  %81 = load ptr, ptr %80, align 8
  %82 = getelementptr inbounds nuw %struct.joystick_hwdata, ptr %81, i32 0, i32 8
  %83 = call i32 (i32, i64, ...) @ioctl(i32 noundef %78, i64 noundef 1076905344, ptr noundef %82) #11
  %84 = icmp slt i32 %83, 0
  br i1 %84, label %85, label %108

85:                                               ; preds = %73
  %86 = load ptr, ptr %5, align 8
  %87 = getelementptr inbounds nuw %struct.SDL_Joystick, ptr %86, i32 0, i32 46
  %88 = load ptr, ptr %87, align 8
  %89 = getelementptr inbounds nuw %struct.joystick_hwdata, ptr %88, i32 0, i32 8
  %90 = getelementptr inbounds nuw %struct.ff_effect, ptr %89, i32 0, i32 1
  store i16 -1, ptr %90, align 2
  %91 = load ptr, ptr %5, align 8
  %92 = getelementptr inbounds nuw %struct.SDL_Joystick, ptr %91, i32 0, i32 46
  %93 = load ptr, ptr %92, align 8
  %94 = getelementptr inbounds nuw %struct.joystick_hwdata, ptr %93, i32 0, i32 0
  %95 = load i32, ptr %94, align 8
  %96 = load ptr, ptr %5, align 8
  %97 = getelementptr inbounds nuw %struct.SDL_Joystick, ptr %96, i32 0, i32 46
  %98 = load ptr, ptr %97, align 8
  %99 = getelementptr inbounds nuw %struct.joystick_hwdata, ptr %98, i32 0, i32 8
  %100 = call i32 (i32, i64, ...) @ioctl(i32 noundef %95, i64 noundef 1076905344, ptr noundef %99) #11
  %101 = icmp slt i32 %100, 0
  br i1 %101, label %102, label %107

102:                                              ; preds = %85
  %103 = call ptr @__errno_location() #12
  %104 = load i32, ptr %103, align 4
  %105 = call ptr @strerror(i32 noundef %104) #11
  %106 = call zeroext i1 (ptr, ...) @SDL_SetError_REAL(ptr noundef @.str.24, ptr noundef %105)
  store i1 %106, ptr %4, align 1
  store i32 1, ptr %12, align 4
  br label %131

107:                                              ; preds = %85
  br label %108

108:                                              ; preds = %107, %73
  %109 = getelementptr inbounds nuw %struct.input_event, ptr %8, i32 0, i32 1
  store i16 21, ptr %109, align 8
  %110 = load ptr, ptr %5, align 8
  %111 = getelementptr inbounds nuw %struct.SDL_Joystick, ptr %110, i32 0, i32 46
  %112 = load ptr, ptr %111, align 8
  %113 = getelementptr inbounds nuw %struct.joystick_hwdata, ptr %112, i32 0, i32 8
  %114 = getelementptr inbounds nuw %struct.ff_effect, ptr %113, i32 0, i32 1
  %115 = load i16, ptr %114, align 2
  %116 = getelementptr inbounds nuw %struct.input_event, ptr %8, i32 0, i32 2
  store i16 %115, ptr %116, align 2
  %117 = getelementptr inbounds nuw %struct.input_event, ptr %8, i32 0, i32 3
  store i32 1, ptr %117, align 4
  %118 = load ptr, ptr %5, align 8
  %119 = getelementptr inbounds nuw %struct.SDL_Joystick, ptr %118, i32 0, i32 46
  %120 = load ptr, ptr %119, align 8
  %121 = getelementptr inbounds nuw %struct.joystick_hwdata, ptr %120, i32 0, i32 0
  %122 = load i32, ptr %121, align 8
  %123 = call i64 @write(i32 noundef %122, ptr noundef %8, i64 noundef 24)
  %124 = icmp slt i64 %123, 0
  br i1 %124, label %125, label %130

125:                                              ; preds = %108
  %126 = call ptr @__errno_location() #12
  %127 = load i32, ptr %126, align 4
  %128 = call ptr @strerror(i32 noundef %127) #11
  %129 = call zeroext i1 (ptr, ...) @SDL_SetError_REAL(ptr noundef @.str.25, ptr noundef %128)
  store i1 %129, ptr %4, align 1
  store i32 1, ptr %12, align 4
  br label %131

130:                                              ; preds = %108
  store i1 true, ptr %4, align 1
  store i32 1, ptr %12, align 4
  br label %131

131:                                              ; preds = %130, %125, %102, %70
  call void @llvm.lifetime.end.p0(i64 24, ptr %8) #11
  %132 = load i1, ptr %4, align 1
  ret i1 %132
}